; Function Attrs: mustprogress uwtable
define internal noundef zeroext i1 @"_ZNSt17_Function_handlerIFvRKN2cv5RangeEEZNS0_8ximgproc19RICInterpolatorImpl15PropagateModelsEiRNS0_3MatERSt6vectorIiSaIiEERS9_IfSaIfEEiRKS9_INS5_11SparseMatchESaISG_EES8_E3$_1E10_M_managerERSt9_Any_dataRKSN_St18_Manager_operation"(ptr noundef nonnull align 8 captures(none) dereferenceable(16) %0, ptr noundef nonnull readonly align 8 captures(none) dereferenceable(16) %1, i32 noundef %2) #3 align 2 {
  switch i32 %2, label %"_ZNSt14_Function_base13_Base_managerIZN2cv8ximgproc19RICInterpolatorImpl15PropagateModelsEiRNS1_3MatERSt6vectorIiSaIiEERS6_IfSaIfEEiRKS6_INS2_11SparseMatchESaISD_EES5_E3$_1E10_M_managerERSt9_Any_dataRKSK_St18_Manager_operation.exit" [
    i32 0, label %4
    i32 1, label %5
    i32 3, label %8
    i32 2, label %6
  ]

4:                                                ; preds = %3
  store ptr @"_ZTIZN2cv8ximgproc19RICInterpolatorImpl15PropagateModelsEiRNS_3MatERSt6vectorIiSaIiEERS4_IfSaIfEEiRKS4_INS0_11SparseMatchESaISB_EES3_E3$_1", ptr %0, align 8, !tbaa !481
  br label %"_ZNSt14_Function_base13_Base_managerIZN2cv8ximgproc19RICInterpolatorImpl15PropagateModelsEiRNS1_3MatERSt6vectorIiSaIiEERS6_IfSaIfEEiRKS6_INS2_11SparseMatchESaISD_EES5_E3$_1E10_M_managerERSt9_Any_dataRKSK_St18_Manager_operation.exit"

5:                                                ; preds = %3
  %.val = load ptr, ptr %1, align 8, !tbaa !449
  store ptr %.val, ptr %0, align 8, !tbaa !449
  br label %"_ZNSt14_Function_base13_Base_managerIZN2cv8ximgproc19RICInterpolatorImpl15PropagateModelsEiRNS1_3MatERSt6vectorIiSaIiEERS6_IfSaIfEEiRKS6_INS2_11SparseMatchESaISD_EES5_E3$_1E10_M_managerERSt9_Any_dataRKSK_St18_Manager_operation.exit"

6:                                                ; preds = %3
  %.val6 = load ptr, ptr %1, align 8
  %7 = tail call noalias noundef nonnull dereferenceable(96) ptr @_Znwm(i64 noundef 96) #32
  tail call void @llvm.memcpy.p0.p0.i64(ptr noundef nonnull align 16 dereferenceable(96) %7, ptr noundef nonnull readonly align 8 dereferenceable(96) %.val6, i64 96, i1 false), !tbaa.struct !537
  store ptr %7, ptr %0, align 8, !tbaa !449
  br label %"_ZNSt14_Function_base13_Base_managerIZN2cv8ximgproc19RICInterpolatorImpl15PropagateModelsEiRNS1_3MatERSt6vectorIiSaIiEERS6_IfSaIfEEiRKS6_INS2_11SparseMatchESaISD_EES5_E3$_1E10_M_managerERSt9_Any_dataRKSK_St18_Manager_operation.exit"

8:                                                ; preds = %3
  %.val7.i = load ptr, ptr %0, align 8, !tbaa !449
  %9 = icmp eq ptr %.val7.i, null
  br i1 %9, label %"_ZNSt14_Function_base13_Base_managerIZN2cv8ximgproc19RICInterpolatorImpl15PropagateModelsEiRNS1_3MatERSt6vectorIiSaIiEERS6_IfSaIfEEiRKS6_INS2_11SparseMatchESaISD_EES5_E3$_1E10_M_managerERSt9_Any_dataRKSK_St18_Manager_operation.exit", label %10

10:                                               ; preds = %8
  tail call void @_ZdlPv(ptr noundef nonnull %.val7.i) #33
  br label %"_ZNSt14_Function_base13_Base_managerIZN2cv8ximgproc19RICInterpolatorImpl15PropagateModelsEiRNS1_3MatERSt6vectorIiSaIiEERS6_IfSaIfEEiRKS6_INS2_11SparseMatchESaISD_EES5_E3$_1E10_M_managerERSt9_Any_dataRKSK_St18_Manager_operation.exit"

"_ZNSt14_Function_base13_Base_managerIZN2cv8ximgproc19RICInterpolatorImpl15PropagateModelsEiRNS1_3MatERSt6vectorIiSaIiEERS6_IfSaIfEEiRKS6_INS2_11SparseMatchESaISD_EES5_E3$_1E10_M_managerERSt9_Any_dataRKSK_St18_Manager_operation.exit": ; preds = %3, %10, %8, %6, %5, %4
  ret i1 false
}